target datalayout = "e-m:e-p270:32:32-p271:32:32-p272:64:64-i64:64-i128:128-f80:128-n8:16:32:64-S128"
target triple = "x86_64-pc-linux-gnu"

%struct.CTState = type { ptr, i32, i32, ptr, ptr, ptr, %struct.CCallback, [128 x i16] }
%struct.CCallback = type { [8 x %union.FPRCBArg], [8 x i64], ptr, ptr, ptr, i32, i32, i32 }
%union.FPRCBArg = type { double }
%struct.CType = type { i32, i32, i16, i16, %struct.GCRef }
%struct.GCRef = type { i64 }
%struct.global_State = type { ptr, ptr, %struct.GCState, %struct.GCstr, i8, i8, i8, i8, %struct.StrInternState, i32, %struct.GCRef, %struct.SBuf, %union.TValue, %union.TValue, %struct.Node, %union.TValue, %struct.GCupval, i32, i32, ptr, ptr, ptr, i32, i32, %struct.GCRef, %struct.MRef, %struct.MRef, %struct.PRNGState, [39 x %struct.GCRef] }
%struct.GCState = type { i64, i64, i8, i8, i8, i8, i32, %struct.GCRef, %struct.MRef, %struct.GCRef, %struct.GCRef, %struct.GCRef, %struct.GCRef, i64, i64, i32, i32, %struct.MRef }
%struct.GCstr = type { %struct.GCRef, i8, i8, i8, i8, i32, i32, i32 }
%struct.StrInternState = type { ptr, i32, i32, i32, i8, i8, i8, i8, i64 }
%struct.SBuf = type { ptr, ptr, ptr, %struct.MRef }
%struct.Node = type { %union.TValue, %union.TValue, %struct.MRef }
%union.TValue = type { i64 }
%struct.GCupval = type { %struct.GCRef, i8, i8, i8, i8, %union.anon, %struct.MRef, i32 }
%union.anon = type { %struct.anon.1 }
%struct.anon.1 = type { %struct.GCRef, %struct.GCRef }
%struct.MRef = type { i64 }
%struct.PRNGState = type { [4 x i64] }

; Function Attrs: alwaysinline nounwind uwtable
define internal i32 @ctype_check(ptr noundef %0, i32 noundef %1) #5 {
  %3 = alloca ptr, align 8
  %4 = alloca i32, align 4
  store ptr %0, ptr %3, align 8, !tbaa !4
  store i32 %1, ptr %4, align 4, !tbaa !21
  %5 = load i32, ptr %4, align 4, !tbaa !21
  ret i32 %5
}

; Function Attrs: alwaysinline nounwind uwtable
define internal ptr @ctype_get(ptr noundef %0, i32 noundef %1) #5 {
  %3 = alloca ptr, align 8
  %4 = alloca i32, align 4
  store ptr %0, ptr %3, align 8, !tbaa !4
  store i32 %1, ptr %4, align 4, !tbaa !21
  %5 = load ptr, ptr %3, align 8, !tbaa !4
  %6 = getelementptr inbounds nuw %struct.CTState, ptr %5, i32 0, i32 0
  %7 = load ptr, ptr %6, align 8, !tbaa !24
  %8 = load ptr, ptr %3, align 8, !tbaa !4
  %9 = load i32, ptr %4, align 4, !tbaa !21
  %10 = call i32 @ctype_check(ptr noundef %8, i32 noundef %9)
  %11 = zext i32 %10 to i64
  %12 = getelementptr inbounds nuw %struct.CType, ptr %7, i64 %11
  ret ptr %12
}

; Function Attrs: nounwind uwtable
define hidden ptr @lj_ctype_meta(ptr noundef %0, i32 noundef %1, i32 noundef %2) #0 {
  %4 = alloca ptr, align 8
  %5 = alloca ptr, align 8
  %6 = alloca i32, align 4
  %7 = alloca i32, align 4
  %8 = alloca ptr, align 8
  %9 = alloca ptr, align 8
  %10 = alloca i32, align 4
  store ptr %0, ptr %5, align 8, !tbaa !4
  store i32 %1, ptr %6, align 4, !tbaa !21
  store i32 %2, ptr %7, align 4, !tbaa !21
  call void @llvm.lifetime.start.p0(i64 8, ptr %8) #8
  %11 = load ptr, ptr %5, align 8, !tbaa !4
  %12 = load i32, ptr %6, align 4, !tbaa !21
  %13 = call ptr @ctype_get(ptr noundef %11, i32 noundef %12)
  store ptr %13, ptr %8, align 8, !tbaa !25
  call void @llvm.lifetime.start.p0(i64 8, ptr %9) #8
  br label %14

14:                                               ; preds = %28, %3
  %15 = load ptr, ptr %8, align 8, !tbaa !25
  %16 = getelementptr inbounds nuw %struct.CType, ptr %15, i32 0, i32 0
  %17 = load i32, ptr %16, align 8, !tbaa !26
  %18 = lshr i32 %17, 28
  %19 = icmp eq i32 %18, 8
  br i1 %19, label %26, label %20

20:                                               ; preds = %14
  %21 = load ptr, ptr %8, align 8, !tbaa !25
  %22 = getelementptr inbounds nuw %struct.CType, ptr %21, i32 0, i32 0
  %23 = load i32, ptr %22, align 8, !tbaa !26
  %24 = and i32 %23, -260046848
  %25 = icmp eq i32 %24, 545259520
  br label %26

26:                                               ; preds = %20, %14
  %27 = phi i1 [ true, %14 ], [ %25, %20 ]
  br i1 %27, label %28, label %36

28:                                               ; preds = %26
  %29 = load ptr, ptr %8, align 8, !tbaa !25
  %30 = getelementptr inbounds nuw %struct.CType, ptr %29, i32 0, i32 0
  %31 = load i32, ptr %30, align 8, !tbaa !26
  %32 = and i32 %31, 65535
  store i32 %32, ptr %6, align 4, !tbaa !21
  %33 = load ptr, ptr %5, align 8, !tbaa !4
  %34 = load i32, ptr %6, align 4, !tbaa !21
  %35 = call ptr @ctype_get(ptr noundef %33, i32 noundef %34)
  store ptr %35, ptr %8, align 8, !tbaa !25
  br label %14, !llvm.loop !50

36:                                               ; preds = %26
  %37 = load ptr, ptr %8, align 8, !tbaa !25
  %38 = getelementptr inbounds nuw %struct.CType, ptr %37, i32 0, i32 0
  %39 = load i32, ptr %38, align 8, !tbaa !26
  %40 = lshr i32 %39, 28
  %41 = icmp eq i32 %40, 2
  br i1 %41, label %42, label %62

42:                                               ; preds = %36
  %43 = load ptr, ptr %5, align 8, !tbaa !4
  %44 = load ptr, ptr %8, align 8, !tbaa !25
  %45 = getelementptr inbounds nuw %struct.CType, ptr %44, i32 0, i32 0
  %46 = load i32, ptr %45, align 8, !tbaa !26
  %47 = and i32 %46, 65535
  %48 = call ptr @ctype_get(ptr noundef %43, i32 noundef %47)
  %49 = getelementptr inbounds nuw %struct.CType, ptr %48, i32 0, i32 0
  %50 = load i32, ptr %49, align 8, !tbaa !26
  %51 = lshr i32 %50, 28
  %52 = icmp eq i32 %51, 6
  br i1 %52, label %53, label %62

53:                                               ; preds = %42
  %54 = load ptr, ptr %5, align 8, !tbaa !4
  %55 = getelementptr inbounds nuw %struct.CTState, ptr %54, i32 0, i32 5
  %56 = load ptr, ptr %55, align 8, !tbaa !51
  %57 = load ptr, ptr %5, align 8, !tbaa !4
  %58 = getelementptr inbounds nuw %struct.CTState, ptr %57, i32 0, i32 4
  %59 = load ptr, ptr %58, align 8, !tbaa !52
  %60 = getelementptr inbounds nuw %struct.global_State, ptr %59, i32 0, i32 3
  %61 = call ptr @lj_tab_getstr(ptr noundef %56, ptr noundef %60)
  store ptr %61, ptr %9, align 8, !tbaa !53
  br label %69

62:                                               ; preds = %42, %36
  %63 = load ptr, ptr %5, align 8, !tbaa !4
  %64 = getelementptr inbounds nuw %struct.CTState, ptr %63, i32 0, i32 5
  %65 = load ptr, ptr %64, align 8, !tbaa !51
  %66 = load i32, ptr %6, align 4, !tbaa !21
  %67 = sub nsw i32 0, %66
  %68 = call ptr @lj_tab_getinth(ptr noundef %65, i32 noundef %67)
  store ptr %68, ptr %9, align 8, !tbaa !53
  br label %69

69:                                               ; preds = %62, %53
  %70 = load ptr, ptr %9, align 8, !tbaa !53
  %71 = icmp ne ptr %70, null
  br i1 %71, label %72, label %103

72:                                               ; preds = %69
  %73 = load ptr, ptr %9, align 8, !tbaa !53
  %74 = load i64, ptr %73, align 8, !tbaa !55
  %75 = ashr i64 %74, 47
  %76 = trunc i64 %75 to i32
  %77 = icmp eq i32 %76, -12
  br i1 %77, label %78, label %103

78:                                               ; preds = %72
  %79 = load ptr, ptr %9, align 8, !tbaa !53
  %80 = getelementptr inbounds nuw %struct.GCRef, ptr %79, i32 0, i32 0
  %81 = load i64, ptr %80, align 8, !tbaa !55
  %82 = and i64 %81, 140737488355327
  %83 = inttoptr i64 %82 to ptr
  %84 = load ptr, ptr %5, align 8, !tbaa !4
  %85 = getelementptr inbounds nuw %struct.CTState, ptr %84, i32 0, i32 4
  %86 = load ptr, ptr %85, align 8, !tbaa !52
  %87 = getelementptr inbounds nuw %struct.global_State, ptr %86, i32 0, i32 28
  %88 = load i32, ptr %7, align 4, !tbaa !21
  %89 = add i32 0, %88
  %90 = zext i32 %89 to i64
  %91 = getelementptr inbounds nuw [39 x %struct.GCRef], ptr %87, i64 0, i64 %90
  %92 = getelementptr inbounds nuw %struct.GCRef, ptr %91, i32 0, i32 0
  %93 = load i64, ptr %92, align 8, !tbaa !56
  %94 = inttoptr i64 %93 to ptr
  %95 = call ptr @lj_tab_getstr(ptr noundef %83, ptr noundef %94)
  store ptr %95, ptr %9, align 8, !tbaa !53
  %96 = icmp ne ptr %95, null
  br i1 %96, label %97, label %103

97:                                               ; preds = %78
  %98 = load ptr, ptr %9, align 8, !tbaa !53
  %99 = load i64, ptr %98, align 8, !tbaa !55
  %100 = icmp eq i64 %99, -1
  br i1 %100, label %103, label %101

101:                                              ; preds = %97
  %102 = load ptr, ptr %9, align 8, !tbaa !53
  store ptr %102, ptr %4, align 8
  store i32 1, ptr %10, align 4
  br label %104

103:                                              ; preds = %97, %78, %72, %69
  store ptr null, ptr %4, align 8
  store i32 1, ptr %10, align 4
  br label %104

104:                                              ; preds = %103, %101
  call void @llvm.lifetime.end.p0(i64 8, ptr %9) #8
  call void @llvm.lifetime.end.p0(i64 8, ptr %8) #8
  %105 = load ptr, ptr %4, align 8
  ret ptr %105
}