; Function Attrs: nounwind uwtable
define hidden ptr @lj_ctype_meta(ptr noundef readonly captures(none) %0, i32 noundef %1, i32 noundef %2) local_unnamed_addr #0 {
  %4 = load ptr, ptr %0, align 8, !tbaa !19
  br label %.critedge

.critedge:                                        ; preds = %.critedge, %3
  %.023 = phi i32 [ %1, %3 ], [ %10, %.critedge ]
  %.pn = zext i32 %.023 to i64
  %.021 = getelementptr inbounds nuw %struct.CType, ptr %4, i64 %.pn
  %5 = load i32, ptr %.021, align 8, !tbaa !28
  %6 = lshr i32 %5, 28
  %7 = icmp eq i32 %6, 8
  %8 = and i32 %5, -260046848
  %9 = icmp eq i32 %8, 545259520
  %or.cond = or i1 %7, %9
  %10 = and i32 %5, 65535
  br i1 %or.cond, label %.critedge, label %11, !llvm.loop !42

11:                                               ; preds = %.critedge
  %12 = icmp eq i32 %6, 2
  br i1 %12, label %13, label %25

13:                                               ; preds = %11
  %14 = zext nneg i32 %10 to i64
  %15 = getelementptr inbounds nuw %struct.CType, ptr %4, i64 %14
  %16 = load i32, ptr %15, align 8, !tbaa !28
  %.mask = and i32 %16, -268435456
  %17 = icmp eq i32 %.mask, 1610612736
  br i1 %17, label %18, label %25

18:                                               ; preds = %13
  %19 = getelementptr inbounds nuw i8, ptr %0, i64 32
  %20 = load ptr, ptr %19, align 8, !tbaa !43
  %21 = getelementptr inbounds nuw i8, ptr %0, i64 24
  %22 = load ptr, ptr %21, align 8, !tbaa !44
  %23 = getelementptr inbounds nuw i8, ptr %22, i64 120
  %24 = tail call ptr @lj_tab_getstr(ptr noundef %20, ptr noundef nonnull %23) #14
  br label %30

25:                                               ; preds = %13, %11
  %26 = getelementptr inbounds nuw i8, ptr %0, i64 32
  %27 = load ptr, ptr %26, align 8, !tbaa !43
  %28 = sub nsw i32 0, %.023
  %29 = tail call ptr @lj_tab_getinth(ptr noundef %27, i32 noundef %28) #14
  br label %30

30:                                               ; preds = %25, %18
  %.0 = phi ptr [ %24, %18 ], [ %29, %25 ]
  %.not = icmp eq ptr %.0, null
  br i1 %.not, label %48, label %31

31:                                               ; preds = %30
  %32 = load i64, ptr %.0, align 8, !tbaa !45
  %.mask26 = and i64 %32, -140737488355328
  %33 = icmp eq i64 %.mask26, -1688849860263936
  br i1 %33, label %34, label %48

34:                                               ; preds = %31
  %35 = and i64 %32, 140737488355327
  %36 = inttoptr i64 %35 to ptr
  %37 = getelementptr inbounds nuw i8, ptr %0, i64 24
  %38 = load ptr, ptr %37, align 8, !tbaa !44
  %39 = getelementptr inbounds nuw i8, ptr %38, i64 424
  %40 = zext i32 %2 to i64
  %41 = getelementptr inbounds nuw [39 x %struct.GCRef], ptr %39, i64 0, i64 %40
  %42 = load i64, ptr %41, align 8, !tbaa !46
  %43 = inttoptr i64 %42 to ptr
  %44 = tail call ptr @lj_tab_getstr(ptr noundef %36, ptr noundef %43) #14
  %.not27 = icmp eq ptr %44, null
  br i1 %.not27, label %48, label %45

45:                                               ; preds = %34
  %46 = load i64, ptr %44, align 8, !tbaa !45
  %47 = icmp eq i64 %46, -1
  br i1 %47, label %48, label %49

48:                                               ; preds = %45, %34, %31, %30
  br label %49

49:                                               ; preds = %45, %48
  %.022 = phi ptr [ null, %48 ], [ %44, %45 ]
  ret ptr %.022
}